; Function Attrs: nounwind uwtable
define dso_local void @_ZThn80_N2EA8UnitTest15TestApplicationD1Ev(ptr noundef %this) unnamed_addr #21 align 2 personality ptr @__gxx_personality_v0 {
entry:
  %0 = getelementptr inbounds i8, ptr %this, i64 -80
  store ptr getelementptr inbounds ({ [20 x ptr], [10 x ptr] }, ptr @_ZTVN2EA8UnitTest9TestSuiteE, i64 0, i32 0, i64 2), ptr %0, align 8
  store ptr getelementptr inbounds ({ [20 x ptr], [10 x ptr] }, ptr @_ZTVN2EA8UnitTest9TestSuiteE, i64 0, i32 1, i64 2), ptr %this, align 8
  %mResults.i.i = getelementptr inbounds i8, ptr %this, i64 40
  %1 = load ptr, ptr %mResults.i.i, align 8
  %tobool.not.i.i.i.i = icmp eq ptr %1, null
  br i1 %tobool.not.i.i.i.i, label %_ZN5eastl6vectorIN2EA8UnitTest9TestSuite10ResultInfoENS_9allocatorEED2Ev.exit.i.i, label %_ZN5eastl9allocator10deallocateEPvm.exit.i.i.i.i

_ZN5eastl9allocator10deallocateEPvm.exit.i.i.i.i: ; preds = %entry
  tail call void @_ZdaPv(ptr noundef nonnull %1) #31
  br label %_ZN5eastl6vectorIN2EA8UnitTest9TestSuite10ResultInfoENS_9allocatorEED2Ev.exit.i.i

_ZN5eastl6vectorIN2EA8UnitTest9TestSuite10ResultInfoENS_9allocatorEED2Ev.exit.i.i: ; preds = %_ZN5eastl9allocator10deallocateEPvm.exit.i.i.i.i, %entry
  store ptr getelementptr inbounds ({ [10 x ptr] }, ptr @_ZTVN2EA8UnitTest14TestCollectionE, i64 0, i32 0, i64 2), ptr %this, align 8
  %mTests.i.i.i = getelementptr inbounds i8, ptr %this, i64 8
  %mpEnd.i.i.i.i = getelementptr inbounds i8, ptr %this, i64 16
  br label %while.cond.i.i.i

while.cond.i.i.i:                                 ; preds = %while.body.i.i.i, %_ZN5eastl6vectorIN2EA8UnitTest9TestSuite10ResultInfoENS_9allocatorEED2Ev.exit.i.i
  %2 = load ptr, ptr %mTests.i.i.i, align 8
  %3 = load ptr, ptr %mpEnd.i.i.i.i, align 8
  %cmp.i.i.i.i = icmp eq ptr %2, %3
  br i1 %cmp.i.i.i.i, label %while.end.i.i.i, label %while.body.i.i.i

while.body.i.i.i:                                 ; preds = %while.cond.i.i.i
  %incdec.ptr.i.i.i.i = getelementptr inbounds i8, ptr %3, i64 -16
  %4 = load ptr, ptr %incdec.ptr.i.i.i.i, align 8
  %vtable.i.i.i = load ptr, ptr %this, align 8
  %vfn.i.i.i = getelementptr inbounds i8, ptr %vtable.i.i.i, i64 40
  %5 = load ptr, ptr %vfn.i.i.i, align 8
  %call5.i.i.i = invoke noundef zeroext i1 %5(ptr noundef nonnull align 8 dereferenceable(32) %this, ptr noundef %4, i1 noundef zeroext true)
          to label %while.cond.i.i.i unwind label %terminate.lpad.i.i.i, !llvm.loop !9

while.end.i.i.i:                                  ; preds = %while.cond.i.i.i
  %tobool.not.i.i.i.i.i = icmp eq ptr %2, null
  br i1 %tobool.not.i.i.i.i.i, label %_ZN2EA8UnitTest14TestCollectionD2Ev.exit.i.i, label %_ZN5eastl9allocator10deallocateEPvm.exit.i.i.i.i.i

_ZN5eastl9allocator10deallocateEPvm.exit.i.i.i.i.i: ; preds = %while.end.i.i.i
  tail call void @_ZdaPv(ptr noundef nonnull %2) #31
  br label %_ZN2EA8UnitTest14TestCollectionD2Ev.exit.i.i

terminate.lpad.i.i.i:                             ; preds = %while.body.i.i.i
  %6 = landingpad { ptr, i32 }
          catch ptr null
  %7 = extractvalue { ptr, i32 } %6, 0
  tail call void @__clang_call_terminate(ptr %7) #34
  unreachable

_ZN2EA8UnitTest14TestCollectionD2Ev.exit.i.i:     ; preds = %_ZN5eastl9allocator10deallocateEPvm.exit.i.i.i.i.i, %while.end.i.i.i
  store ptr getelementptr inbounds ({ [13 x ptr] }, ptr @_ZTVN2EA8UnitTest4TestE, i64 0, i32 0, i64 2), ptr %0, align 8
  %mRemainingSizeField.i.i.i.i.i.i = getelementptr inbounds i8, ptr %this, i64 -49
  %8 = load i8, ptr %mRemainingSizeField.i.i.i.i.i.i, align 1
  %tobool.i.i.i.i.i.i = icmp slt i8 %8, 0
  br i1 %tobool.i.i.i.i.i.i, label %if.then.i.i.i.i.i, label %_ZN2EA8UnitTest15TestApplicationD2Ev.exit

if.then.i.i.i.i.i:                                ; preds = %_ZN2EA8UnitTest14TestCollectionD2Ev.exit.i.i
  %msTestName.i.i.i = getelementptr inbounds i8, ptr %this, i64 -72
  %9 = load ptr, ptr %msTestName.i.i.i, align 8
  %tobool.not.i.i.i.i.i.i = icmp eq ptr %9, null
  br i1 %tobool.not.i.i.i.i.i.i, label %_ZN2EA8UnitTest15TestApplicationD2Ev.exit, label %_ZN5eastl9allocator10deallocateEPvm.exit.i.i.i.i.i.i

_ZN5eastl9allocator10deallocateEPvm.exit.i.i.i.i.i.i: ; preds = %if.then.i.i.i.i.i
  tail call void @_ZdaPv(ptr noundef nonnull %9) #31
  br label %_ZN2EA8UnitTest15TestApplicationD2Ev.exit

_ZN2EA8UnitTest15TestApplicationD2Ev.exit:        ; preds = %_ZN2EA8UnitTest14TestCollectionD2Ev.exit.i.i, %if.then.i.i.i.i.i, %_ZN5eastl9allocator10deallocateEPvm.exit.i.i.i.i.i.i
  ret void
}